target datalayout = "e-m:e-p270:32:32-p271:32:32-p272:64:64-i64:64-i128:128-f80:128-n8:16:32:64-S128"
target triple = "x86_64-pc-linux-gnu"

%struct._zval_struct = type { %union._zend_value, %union.anon, %union.anon.2 }
%union._zend_value = type { i64 }
%union.anon = type { i32 }
%union.anon.2 = type { i32 }
%struct._zend_executor_globals = type { %struct._zval_struct, %struct._zval_struct, [32 x ptr], ptr, ptr, %struct._zend_array, %struct._zend_array, ptr, i32, i32, ptr, ptr, ptr, ptr, ptr, ptr, i64, ptr, ptr, i32, i32, i64, i32, i32, i32, i8, i8, %struct.zend_atomic_bool_s, %struct.zend_atomic_bool_s, ptr, i64, ptr, ptr, %struct._zend_array, %struct._zend_array, i32, i8, %struct._zval_struct, %struct._zval_struct, %struct._zend_stack, %struct._zend_stack, %struct._zend_stack, ptr, i32, i32, i64, ptr, ptr, ptr, %struct._zend_objects_store, ptr, ptr, ptr, [3 x %struct._zend_op], ptr, i8, i8, i64, i32, i32, ptr, [16 x %struct._HashTableIterator], ptr, %union._zend_function, %struct._zend_op, %struct._zend_array, i64, %struct.zend_get_gc_buffer, ptr, ptr, ptr, i64, i8, i32, ptr, ptr, i64, %struct._zend_call_stack, i64, i64, [6 x ptr] }
%struct.zend_atomic_bool_s = type { i8 }
%struct._zend_stack = type { i32, i32, i32, ptr }
%struct._zend_objects_store = type { ptr, i32, i32, i32 }
%struct._HashTableIterator = type { ptr, i32, i32 }
%union._zend_function = type { %struct._zend_op_array }
%struct._zend_op_array = type { i8, [3 x i8], i32, ptr, ptr, ptr, i32, i32, ptr, ptr, ptr, ptr, i32, i32, i32, i32, ptr, ptr, ptr, ptr, ptr, i32, i32, ptr, ptr, ptr, i32, i32, i32, i32, ptr, ptr, [6 x ptr] }
%struct._zend_op = type { ptr, %union._znode_op, %union._znode_op, %union._znode_op, i32, i32, i8, i8, i8, i8 }
%union._znode_op = type { i32 }
%struct._zend_array = type { %struct._zend_refcounted_h, %union.anon.4, i32, %union.anon.6, i32, i32, i32, i32, i64, ptr }
%struct._zend_refcounted_h = type { i32, %union.anon.3 }
%union.anon.3 = type { i32 }
%union.anon.4 = type { i32 }
%union.anon.6 = type { ptr }
%struct.zend_get_gc_buffer = type { ptr, ptr, ptr }
%struct._zend_call_stack = type { ptr, i64 }
%struct._zend_string = type { %struct._zend_refcounted_h, i64, i64, [1 x i8] }
%struct.itimerval = type { %struct.timeval, %struct.timeval }
%struct.timeval = type { i64, i64 }

@executor_globals = external global %struct._zend_executor_globals, align 8
@.str.18 = private unnamed_addr constant [8 x i8] c"Unknown\00", align 1
@.str.19 = private unnamed_addr constant [96 x i8] c"\0AFatal error: Maximum execution time of %ld+%ld seconds exceeded (terminated) in %s on line %d\0A\00", align 1
@zend_on_timeout = external global ptr, align 8

; Function Attrs: nounwind uwtable
define internal void @zend_set_timeout_ex(i64 noundef %0, i1 noundef zeroext %1) #0 {
  %3 = alloca i64, align 8
  %4 = alloca i8, align 1
  %5 = alloca %struct.itimerval, align 8
  %6 = alloca i32, align 4
  store i64 %0, ptr %3, align 8
  %7 = zext i1 %1 to i8
  store i8 %7, ptr %4, align 1
  %8 = load i64, ptr %3, align 8
  %9 = icmp ne i64 %8, 0
  br i1 %9, label %10, label %21

10:                                               ; preds = %2
  %11 = load i64, ptr %3, align 8
  %12 = getelementptr inbounds %struct.itimerval, ptr %5, i32 0, i32 1
  %13 = getelementptr inbounds %struct.timeval, ptr %12, i32 0, i32 0
  store i64 %11, ptr %13, align 8
  %14 = getelementptr inbounds %struct.itimerval, ptr %5, i32 0, i32 0
  %15 = getelementptr inbounds %struct.timeval, ptr %14, i32 0, i32 1
  store i64 0, ptr %15, align 8
  %16 = getelementptr inbounds %struct.itimerval, ptr %5, i32 0, i32 0
  %17 = getelementptr inbounds %struct.timeval, ptr %16, i32 0, i32 0
  store i64 0, ptr %17, align 8
  %18 = getelementptr inbounds %struct.itimerval, ptr %5, i32 0, i32 1
  %19 = getelementptr inbounds %struct.timeval, ptr %18, i32 0, i32 1
  store i64 0, ptr %19, align 8
  %20 = call i32 @setitimer(i32 noundef 2, ptr noundef %5, ptr noundef null) #14
  br label %21

21:                                               ; preds = %10, %2
  store i32 27, ptr %6, align 4
  %22 = load i8, ptr %4, align 1
  %23 = trunc i8 %22 to i1
  br i1 %23, label %24, label %26

24:                                               ; preds = %21
  %25 = load i32, ptr %6, align 4
  call void @zend_signal(i32 noundef %25, ptr noundef @zend_timeout_handler)
  br label %26

26:                                               ; preds = %24, %21
  ret void
}

; Function Attrs: nounwind uwtable
define zeroext i1 @zend_is_executing() #0 {
  %1 = load ptr, ptr getelementptr inbounds (%struct._zend_executor_globals, ptr @executor_globals, i32 0, i32 17), align 8
  %2 = icmp ne ptr %1, null
  ret i1 %2
}

; Function Attrs: nounwind uwtable
define internal void @zend_timeout_handler(i32 noundef %0) #0 {
  %2 = alloca ptr, align 8
  %3 = alloca i8, align 1
  %4 = alloca ptr, align 8
  %5 = alloca i8, align 1
  %6 = alloca ptr, align 8
  %7 = alloca i32, align 4
  %8 = alloca ptr, align 8
  %9 = alloca i32, align 4
  %10 = alloca [2048 x i8], align 16
  %11 = alloca i32, align 4
  %12 = alloca i64, align 8
  store i32 %0, ptr %7, align 4
  store ptr getelementptr inbounds (%struct._zend_executor_globals, ptr @executor_globals, i32 0, i32 28), ptr %6, align 8
  %13 = load ptr, ptr %6, align 8
  %14 = atomicrmw or ptr %13, i8 0 seq_cst, align 1
  %15 = icmp ne i8 %14, 0
  br i1 %15, label %16, label %63

16:                                               ; preds = %1
  store ptr null, ptr %8, align 8
  store i32 0, ptr %9, align 4
  store i32 0, ptr %11, align 4
  %17 = call zeroext i1 @zend_is_compiling()
  br i1 %17, label %18, label %23

18:                                               ; preds = %16
  %19 = call ptr @zend_get_compiled_filename()
  %20 = getelementptr inbounds %struct._zend_string, ptr %19, i32 0, i32 3
  %21 = getelementptr inbounds [1 x i8], ptr %20, i64 0, i64 0
  store ptr %21, ptr %8, align 8
  %22 = call i32 @zend_get_compiled_lineno()
  store i32 %22, ptr %9, align 4
  br label %37

23:                                               ; preds = %16
  %24 = call zeroext i1 @zend_is_executing()
  br i1 %24, label %25, label %36

25:                                               ; preds = %23
  %26 = call ptr @zend_get_executed_filename()
  store ptr %26, ptr %8, align 8
  %27 = load ptr, ptr %8, align 8
  %28 = getelementptr inbounds i8, ptr %27, i64 0
  %29 = load i8, ptr %28, align 1
  %30 = sext i8 %29 to i32
  %31 = icmp eq i32 %30, 91
  br i1 %31, label %32, label %33

32:                                               ; preds = %25
  store ptr null, ptr %8, align 8
  store i32 0, ptr %9, align 4
  br label %35

33:                                               ; preds = %25
  %34 = call i32 @zend_get_executed_lineno()
  store i32 %34, ptr %9, align 4
  br label %35

35:                                               ; preds = %33, %32
  br label %36

36:                                               ; preds = %35, %23
  br label %37

37:                                               ; preds = %36, %18
  %38 = load ptr, ptr %8, align 8
  %39 = icmp ne ptr %38, null
  br i1 %39, label %41, label %40

40:                                               ; preds = %37
  store ptr @.str.18, ptr %8, align 8
  br label %41

41:                                               ; preds = %40, %37
  %42 = getelementptr inbounds [2048 x i8], ptr %10, i64 0, i64 0
  %43 = load i64, ptr getelementptr inbounds (%struct._zend_executor_globals, ptr @executor_globals, i32 0, i32 45), align 8
  %44 = load i64, ptr getelementptr inbounds (%struct._zend_executor_globals, ptr @executor_globals, i32 0, i32 30), align 8
  %45 = load ptr, ptr %8, align 8
  %46 = load i32, ptr %9, align 4
  %47 = call i32 (ptr, i64, ptr, ...) @snprintf(ptr noundef %42, i64 noundef 2048, ptr noundef @.str.19, i64 noundef %43, i64 noundef %44, ptr noundef %45, i32 noundef %46) #14
  store i32 %47, ptr %11, align 4
  %48 = load i32, ptr %11, align 4
  %49 = icmp sgt i32 %48, 0
  br i1 %49, label %50, label %62

50:                                               ; preds = %41
  %51 = getelementptr inbounds [2048 x i8], ptr %10, i64 0, i64 0
  %52 = load i32, ptr %11, align 4
  %53 = sext i32 %52 to i64
  %54 = icmp ult i64 %53, 2048
  br i1 %54, label %55, label %58

55:                                               ; preds = %50
  %56 = load i32, ptr %11, align 4
  %57 = sext i32 %56 to i64
  br label %59

58:                                               ; preds = %50
  br label %59

59:                                               ; preds = %58, %55
  %60 = phi i64 [ %57, %55 ], [ 2048, %58 ]
  %61 = call i64 @write(i32 noundef 2, ptr noundef %51, i64 noundef %60)
  store i64 %61, ptr %12, align 8
  br label %62

62:                                               ; preds = %59, %41
  call void @_exit(i32 noundef 124) #16
  unreachable

63:                                               ; preds = %1
  %64 = load ptr, ptr @zend_on_timeout, align 8
  %65 = icmp ne ptr %64, null
  br i1 %65, label %66, label %70

66:                                               ; preds = %63
  %67 = load ptr, ptr @zend_on_timeout, align 8
  %68 = load i64, ptr getelementptr inbounds (%struct._zend_executor_globals, ptr @executor_globals, i32 0, i32 45), align 8
  %69 = trunc i64 %68 to i32
  call void %67(i32 noundef %69)
  br label %70

70:                                               ; preds = %66, %63
  store ptr getelementptr inbounds (%struct._zend_executor_globals, ptr @executor_globals, i32 0, i32 28), ptr %2, align 8
  store i8 1, ptr %3, align 1
  fence seq_cst
  %71 = load i8, ptr %3, align 1
  %72 = trunc i8 %71 to i1
  %73 = zext i1 %72 to i8
  %74 = load ptr, ptr %2, align 8
  store volatile i8 %73, ptr %74, align 1
  fence seq_cst
  store ptr getelementptr inbounds (%struct._zend_executor_globals, ptr @executor_globals, i32 0, i32 27), ptr %4, align 8
  store i8 1, ptr %5, align 1
  fence seq_cst
  %75 = load i8, ptr %5, align 1
  %76 = trunc i8 %75 to i1
  %77 = zext i1 %76 to i8
  %78 = load ptr, ptr %4, align 8
  store volatile i8 %77, ptr %78, align 1
  fence seq_cst
  %79 = load i64, ptr getelementptr inbounds (%struct._zend_executor_globals, ptr @executor_globals, i32 0, i32 30), align 8
  %80 = icmp sgt i64 %79, 0
  br i1 %80, label %81, label %83

81:                                               ; preds = %70
  %82 = load i64, ptr getelementptr inbounds (%struct._zend_executor_globals, ptr @executor_globals, i32 0, i32 30), align 8
  call void @zend_set_timeout_ex(i64 noundef %82, i1 noundef zeroext true)
  br label %83

83:                                               ; preds = %81, %70
  ret void
}