; Function Attrs: nounwind uwtable
define internal void @zend_timeout_handler(i32 %0) #0 {
  %2 = alloca %struct.itimerval, align 8
  %3 = alloca [2048 x i8], align 16
  %4 = atomicrmw or ptr getelementptr inbounds (%struct._zend_executor_globals, ptr @executor_globals, i64 0, i32 28), i8 0 seq_cst, align 1
  %.not = icmp eq i8 %4, 0
  br i1 %.not, label %29, label %5

5:                                                ; preds = %1
  %6 = tail call zeroext i1 @zend_is_compiling() #24
  br i1 %6, label %7, label %11

7:                                                ; preds = %5
  %8 = tail call ptr @zend_get_compiled_filename() #24
  %9 = getelementptr inbounds i8, ptr %8, i64 24
  %10 = tail call i32 @zend_get_compiled_lineno() #24
  br label %19

11:                                               ; preds = %5
  %12 = load ptr, ptr getelementptr inbounds (%struct._zend_executor_globals, ptr @executor_globals, i64 0, i32 17), align 8
  %.not17 = icmp eq ptr %12, null
  br i1 %.not17, label %19, label %13

13:                                               ; preds = %11
  %14 = tail call ptr @zend_get_executed_filename()
  %15 = load i8, ptr %14, align 1
  %16 = icmp eq i8 %15, 91
  br i1 %16, label %19, label %17

17:                                               ; preds = %13
  %18 = tail call i32 @zend_get_executed_lineno()
  br label %19

19:                                               ; preds = %13, %11, %17, %7
  %.011 = phi i32 [ %10, %7 ], [ %18, %17 ], [ 0, %11 ], [ 0, %13 ]
  %.0 = phi ptr [ %9, %7 ], [ %14, %17 ], [ null, %11 ], [ null, %13 ]
  %.not16 = icmp eq ptr %.0, null
  %spec.store.select = select i1 %.not16, ptr @.str.18, ptr %.0
  %20 = load i64, ptr getelementptr inbounds (%struct._zend_executor_globals, ptr @executor_globals, i64 0, i32 45), align 8
  %21 = load i64, ptr getelementptr inbounds (%struct._zend_executor_globals, ptr @executor_globals, i64 0, i32 30), align 8
  %22 = call i32 (ptr, i64, ptr, ...) @snprintf(ptr noundef nonnull dereferenceable(1) %3, i64 noundef 2048, ptr noundef nonnull @.str.19, i64 noundef %20, i64 noundef %21, ptr noundef nonnull %spec.store.select, i32 noundef %.011) #24
  %23 = icmp sgt i32 %22, 0
  br i1 %23, label %24, label %28

24:                                               ; preds = %19
  %25 = tail call i32 @llvm.umin.i32(i32 %22, i32 2048)
  %26 = zext nneg i32 %25 to i64
  %27 = call i64 @write(i32 noundef 2, ptr noundef nonnull %3, i64 noundef %26) #24
  br label %28

28:                                               ; preds = %24, %19
  tail call void @_exit(i32 noundef 124) #27
  unreachable

29:                                               ; preds = %1
  %30 = load ptr, ptr @zend_on_timeout, align 8
  %.not15 = icmp eq ptr %30, null
  br i1 %.not15, label %34, label %31

31:                                               ; preds = %29
  %32 = load i64, ptr getelementptr inbounds (%struct._zend_executor_globals, ptr @executor_globals, i64 0, i32 45), align 8
  %33 = trunc i64 %32 to i32
  tail call void %30(i32 noundef %33) #24
  br label %34

34:                                               ; preds = %31, %29
  fence seq_cst
  store volatile i8 1, ptr getelementptr inbounds (%struct._zend_executor_globals, ptr @executor_globals, i64 0, i32 28), align 1
  fence seq_cst
  store volatile i8 1, ptr getelementptr inbounds (%struct._zend_executor_globals, ptr @executor_globals, i64 0, i32 27), align 2
  fence seq_cst
  %35 = load i64, ptr getelementptr inbounds (%struct._zend_executor_globals, ptr @executor_globals, i64 0, i32 30), align 8
  %36 = icmp sgt i64 %35, 0
  br i1 %36, label %zend_set_timeout_ex.exit, label %40

zend_set_timeout_ex.exit:                         ; preds = %34
  call void @llvm.lifetime.start.p0(i64 32, ptr nonnull %2)
  %37 = getelementptr inbounds i8, ptr %2, i64 16
  store i64 %35, ptr %37, align 8
  %38 = getelementptr inbounds i8, ptr %2, i64 24
  store i64 0, ptr %38, align 8
  call void @llvm.memset.p0.i64(ptr noundef nonnull align 8 dereferenceable(16) %2, i8 0, i64 16, i1 false)
  %39 = call i32 @setitimer(i32 noundef 2, ptr noundef nonnull %2, ptr noundef null) #24
  tail call void @zend_signal(i32 noundef 27, ptr noundef nonnull @zend_timeout_handler) #24
  call void @llvm.lifetime.end.p0(i64 32, ptr nonnull %2)
  br label %40

40:                                               ; preds = %zend_set_timeout_ex.exit, %34
  ret void
}